target datalayout = "e-m:e-p270:32:32-p271:32:32-p272:64:64-i64:64-i128:128-f80:128-n8:16:32:64-S128"
target triple = "x86_64-pc-linux-gnu"

%struct.AVFilterContext = type { ptr, ptr, ptr, ptr, ptr, i32, ptr, ptr, i32, ptr, ptr, i32, i32, ptr, ptr, ptr, ptr, i32, ptr, i32, i32 }
%struct.MultiplyContext = type { ptr, float, float, i32, [4 x i32], i32, %struct.FFFrameSync }
%struct.FFFrameSync = type { ptr, ptr, i32, %struct.AVRational, i64, ptr, ptr, i32, i32, i8, i8, ptr, i32, i32, i32, i32 }
%struct.AVRational = type { i32, i32 }
%struct.AVFilterLink = type { ptr, ptr, ptr, ptr, i32, i32, i32, i32, %struct.AVRational, i32, i32, i32, %struct.AVChannelLayout, %struct.AVRational, ptr, i32, %struct.AVFilterFormatsConfig, %struct.AVFilterFormatsConfig }
%struct.AVChannelLayout = type { i32, i32, %union.anon.1, ptr }
%union.anon.1 = type { i64 }
%struct.AVFilterFormatsConfig = type { ptr, ptr, ptr, ptr, ptr }
%struct.ThreadData = type { ptr, ptr, ptr }
%struct.AVFrame = type { [8 x ptr], [8 x i32], ptr, i32, i32, i32, i32, i32, %struct.AVRational, i64, i64, %struct.AVRational, i32, ptr, i32, i32, [8 x ptr], ptr, i32, ptr, i32, i32, i32, i32, i32, i32, i32, i64, ptr, i32, ptr, ptr, i64, i64, i64, i64, ptr, %struct.AVChannelLayout, i64 }

; Function Attrs: nounwind uwtable
define internal i32 @process_frame(ptr noundef %0) #2 {
  %2 = alloca i32, align 4
  %3 = alloca ptr, align 8
  %4 = alloca ptr, align 8
  %5 = alloca ptr, align 8
  %6 = alloca ptr, align 8
  %7 = alloca ptr, align 8
  %8 = alloca ptr, align 8
  %9 = alloca ptr, align 8
  %10 = alloca i32, align 4
  %11 = alloca i32, align 4
  %12 = alloca %struct.ThreadData, align 8
  store ptr %0, ptr %3, align 8, !tbaa !61
  call void @llvm.lifetime.start.p0(i64 8, ptr %4) #8
  %13 = load ptr, ptr %3, align 8, !tbaa !61
  %14 = getelementptr inbounds nuw %struct.FFFrameSync, ptr %13, i32 0, i32 1
  %15 = load ptr, ptr %14, align 8, !tbaa !63
  store ptr %15, ptr %4, align 8, !tbaa !4
  call void @llvm.lifetime.start.p0(i64 8, ptr %5) #8
  %16 = load ptr, ptr %3, align 8, !tbaa !61
  %17 = getelementptr inbounds nuw %struct.FFFrameSync, ptr %16, i32 0, i32 6
  %18 = load ptr, ptr %17, align 8, !tbaa !64
  store ptr %18, ptr %5, align 8, !tbaa !22
  call void @llvm.lifetime.start.p0(i64 8, ptr %6) #8
  %19 = load ptr, ptr %4, align 8, !tbaa !4
  %20 = getelementptr inbounds nuw %struct.AVFilterContext, ptr %19, i32 0, i32 7
  %21 = load ptr, ptr %20, align 8, !tbaa !65
  %22 = getelementptr inbounds ptr, ptr %21, i64 0
  %23 = load ptr, ptr %22, align 8, !tbaa !24
  store ptr %23, ptr %6, align 8, !tbaa !24
  call void @llvm.lifetime.start.p0(i64 8, ptr %7) #8
  call void @llvm.lifetime.start.p0(i64 8, ptr %8) #8
  call void @llvm.lifetime.start.p0(i64 8, ptr %9) #8
  call void @llvm.lifetime.start.p0(i64 4, ptr %10) #8
  %24 = load ptr, ptr %5, align 8, !tbaa !22
  %25 = getelementptr inbounds nuw %struct.MultiplyContext, ptr %24, i32 0, i32 6
  %26 = call i32 @ff_framesync_get_frame(ptr noundef %25, i32 noundef 0, ptr noundef %8, i32 noundef 0)
  store i32 %26, ptr %10, align 4, !tbaa !42
  %27 = icmp slt i32 %26, 0
  br i1 %27, label %33, label %28

28:                                               ; preds = %1
  %29 = load ptr, ptr %5, align 8, !tbaa !22
  %30 = getelementptr inbounds nuw %struct.MultiplyContext, ptr %29, i32 0, i32 6
  %31 = call i32 @ff_framesync_get_frame(ptr noundef %30, i32 noundef 1, ptr noundef %9, i32 noundef 0)
  store i32 %31, ptr %10, align 4, !tbaa !42
  %32 = icmp slt i32 %31, 0
  br i1 %32, label %33, label %35

33:                                               ; preds = %28, %1
  %34 = load i32, ptr %10, align 4, !tbaa !42
  store i32 %34, ptr %2, align 4
  store i32 1, ptr %11, align 4
  br label %107

35:                                               ; preds = %28
  %36 = load ptr, ptr %4, align 8, !tbaa !4
  %37 = getelementptr inbounds nuw %struct.AVFilterContext, ptr %36, i32 0, i32 17
  %38 = load i32, ptr %37, align 8, !tbaa !66
  %39 = icmp ne i32 %38, 0
  br i1 %39, label %40, label %47

40:                                               ; preds = %35
  %41 = load ptr, ptr %8, align 8, !tbaa !67
  %42 = call ptr @av_frame_clone(ptr noundef %41)
  store ptr %42, ptr %7, align 8, !tbaa !67
  %43 = load ptr, ptr %7, align 8, !tbaa !67
  %44 = icmp ne ptr %43, null
  br i1 %44, label %46, label %45

45:                                               ; preds = %40
  store i32 -12, ptr %2, align 4
  store i32 1, ptr %11, align 4
  br label %107

46:                                               ; preds = %40
  br label %89

47:                                               ; preds = %35
  call void @llvm.lifetime.start.p0(i64 24, ptr %12) #8
  %48 = load ptr, ptr %6, align 8, !tbaa !24
  %49 = load ptr, ptr %6, align 8, !tbaa !24
  %50 = getelementptr inbounds nuw %struct.AVFilterLink, ptr %49, i32 0, i32 6
  %51 = load i32, ptr %50, align 8, !tbaa !41
  %52 = load ptr, ptr %6, align 8, !tbaa !24
  %53 = getelementptr inbounds nuw %struct.AVFilterLink, ptr %52, i32 0, i32 7
  %54 = load i32, ptr %53, align 4, !tbaa !47
  %55 = call ptr @ff_get_video_buffer(ptr noundef %48, i32 noundef %51, i32 noundef %54)
  store ptr %55, ptr %7, align 8, !tbaa !67
  %56 = load ptr, ptr %7, align 8, !tbaa !67
  %57 = icmp ne ptr %56, null
  br i1 %57, label %59, label %58

58:                                               ; preds = %47
  store i32 -12, ptr %2, align 4
  store i32 1, ptr %11, align 4
  br label %86

59:                                               ; preds = %47
  %60 = load ptr, ptr %7, align 8, !tbaa !67
  %61 = load ptr, ptr %8, align 8, !tbaa !67
  %62 = call i32 @av_frame_copy_props(ptr noundef %60, ptr noundef %61)
  %63 = load ptr, ptr %8, align 8, !tbaa !67
  %64 = getelementptr inbounds nuw %struct.ThreadData, ptr %12, i32 0, i32 0
  store ptr %63, ptr %64, align 8, !tbaa !68
  %65 = load ptr, ptr %9, align 8, !tbaa !67
  %66 = getelementptr inbounds nuw %struct.ThreadData, ptr %12, i32 0, i32 1
  store ptr %65, ptr %66, align 8, !tbaa !70
  %67 = load ptr, ptr %7, align 8, !tbaa !67
  %68 = getelementptr inbounds nuw %struct.ThreadData, ptr %12, i32 0, i32 2
  store ptr %67, ptr %68, align 8, !tbaa !71
  %69 = load ptr, ptr %4, align 8, !tbaa !4
  %70 = load ptr, ptr %6, align 8, !tbaa !24
  %71 = getelementptr inbounds nuw %struct.AVFilterLink, ptr %70, i32 0, i32 7
  %72 = load i32, ptr %71, align 4, !tbaa !47
  %73 = load ptr, ptr %4, align 8, !tbaa !4
  %74 = call i32 @ff_filter_get_nb_threads(ptr noundef %73) #9
  %75 = icmp sgt i32 %72, %74
  br i1 %75, label %76, label %79

76:                                               ; preds = %59
  %77 = load ptr, ptr %4, align 8, !tbaa !4
  %78 = call i32 @ff_filter_get_nb_threads(ptr noundef %77) #9
  br label %83

79:                                               ; preds = %59
  %80 = load ptr, ptr %6, align 8, !tbaa !24
  %81 = getelementptr inbounds nuw %struct.AVFilterLink, ptr %80, i32 0, i32 7
  %82 = load i32, ptr %81, align 4, !tbaa !47
  br label %83

83:                                               ; preds = %79, %76
  %84 = phi i32 [ %78, %76 ], [ %82, %79 ]
  %85 = call i32 @ff_filter_execute(ptr noundef %69, ptr noundef @multiply_slice, ptr noundef %12, ptr noundef null, i32 noundef %84)
  store i32 0, ptr %11, align 4
  br label %86

86:                                               ; preds = %83, %58
  call void @llvm.lifetime.end.p0(i64 24, ptr %12) #8
  %87 = load i32, ptr %11, align 4
  switch i32 %87, label %107 [
    i32 0, label %88
  ]

88:                                               ; preds = %86
  br label %89

89:                                               ; preds = %88, %46
  %90 = load ptr, ptr %5, align 8, !tbaa !22
  %91 = getelementptr inbounds nuw %struct.MultiplyContext, ptr %90, i32 0, i32 6
  %92 = getelementptr inbounds nuw %struct.FFFrameSync, ptr %91, i32 0, i32 4
  %93 = load i64, ptr %92, align 8, !tbaa !72
  %94 = load ptr, ptr %5, align 8, !tbaa !22
  %95 = getelementptr inbounds nuw %struct.MultiplyContext, ptr %94, i32 0, i32 6
  %96 = getelementptr inbounds nuw %struct.FFFrameSync, ptr %95, i32 0, i32 3
  %97 = load ptr, ptr %6, align 8, !tbaa !24
  %98 = getelementptr inbounds nuw %struct.AVFilterLink, ptr %97, i32 0, i32 13
  %99 = load i64, ptr %96, align 4
  %100 = load i64, ptr %98, align 8
  %101 = call i64 @av_rescale_q(i64 noundef %93, i64 %99, i64 %100) #10
  %102 = load ptr, ptr %7, align 8, !tbaa !67
  %103 = getelementptr inbounds nuw %struct.AVFrame, ptr %102, i32 0, i32 9
  store i64 %101, ptr %103, align 8, !tbaa !73
  %104 = load ptr, ptr %6, align 8, !tbaa !24
  %105 = load ptr, ptr %7, align 8, !tbaa !67
  %106 = call i32 @ff_filter_frame(ptr noundef %104, ptr noundef %105)
  store i32 %106, ptr %2, align 4
  store i32 1, ptr %11, align 4
  br label %107

107:                                              ; preds = %89, %86, %45, %33
  call void @llvm.lifetime.end.p0(i64 4, ptr %10) #8
  call void @llvm.lifetime.end.p0(i64 8, ptr %9) #8
  call void @llvm.lifetime.end.p0(i64 8, ptr %8) #8
  call void @llvm.lifetime.end.p0(i64 8, ptr %7) #8
  call void @llvm.lifetime.end.p0(i64 8, ptr %6) #8
  call void @llvm.lifetime.end.p0(i64 8, ptr %5) #8
  call void @llvm.lifetime.end.p0(i64 8, ptr %4) #8
  %108 = load i32, ptr %2, align 4
  ret i32 %108
}