; Function Attrs: nounwind uwtable
define internal i32 @process_frame(ptr noundef readonly captures(none) %0) #2 {
  %2 = alloca ptr, align 8
  %3 = alloca ptr, align 8
  %4 = alloca %struct.ThreadData, align 8
  %5 = getelementptr inbounds nuw i8, ptr %0, i64 8
  %6 = load ptr, ptr %5, align 8, !tbaa !53
  %7 = getelementptr inbounds nuw i8, ptr %0, i64 48
  %8 = load ptr, ptr %7, align 8, !tbaa !54
  %9 = getelementptr inbounds nuw i8, ptr %6, i64 56
  %10 = load ptr, ptr %9, align 8, !tbaa !55
  %11 = load ptr, ptr %10, align 8, !tbaa !39
  call void @llvm.lifetime.start.p0(i64 8, ptr nonnull %2) #7
  call void @llvm.lifetime.start.p0(i64 8, ptr nonnull %3) #7
  %12 = getelementptr inbounds nuw i8, ptr %8, i64 40
  %13 = call i32 @ff_framesync_get_frame(ptr noundef nonnull %12, i32 noundef 0, ptr noundef nonnull %2, i32 noundef 0) #7
  %14 = icmp slt i32 %13, 0
  br i1 %14, label %50, label %15

15:                                               ; preds = %1
  %16 = call i32 @ff_framesync_get_frame(ptr noundef nonnull %12, i32 noundef 1, ptr noundef nonnull %3, i32 noundef 0) #7
  %17 = icmp slt i32 %16, 0
  br i1 %17, label %50, label %18

18:                                               ; preds = %15
  %19 = getelementptr inbounds nuw i8, ptr %6, i64 128
  %20 = load i32, ptr %19, align 8, !tbaa !56
  %.not = icmp eq i32 %20, 0
  br i1 %.not, label %24, label %21

21:                                               ; preds = %18
  %22 = load ptr, ptr %2, align 8, !tbaa !57
  %23 = call ptr @av_frame_clone(ptr noundef %22) #7
  %.not36 = icmp eq ptr %23, null
  br i1 %.not36, label %50, label %40

24:                                               ; preds = %18
  call void @llvm.lifetime.start.p0(i64 24, ptr nonnull %4) #7
  %25 = getelementptr inbounds nuw i8, ptr %11, i64 40
  %26 = load i32, ptr %25, align 8, !tbaa !36
  %27 = getelementptr inbounds nuw i8, ptr %11, i64 44
  %28 = load i32, ptr %27, align 4, !tbaa !41
  %29 = call ptr @ff_get_video_buffer(ptr noundef %11, i32 noundef %26, i32 noundef %28) #7
  %.not35.not = icmp eq ptr %29, null
  br i1 %.not35.not, label %.critedge, label %30

30:                                               ; preds = %24
  %31 = load ptr, ptr %2, align 8, !tbaa !57
  %32 = call i32 @av_frame_copy_props(ptr noundef nonnull %29, ptr noundef %31) #7
  %33 = load ptr, ptr %2, align 8, !tbaa !57
  store ptr %33, ptr %4, align 8, !tbaa !58
  %34 = load ptr, ptr %3, align 8, !tbaa !57
  %35 = getelementptr inbounds nuw i8, ptr %4, i64 8
  store ptr %34, ptr %35, align 8, !tbaa !60
  %36 = getelementptr inbounds nuw i8, ptr %4, i64 16
  store ptr %29, ptr %36, align 8, !tbaa !61
  %37 = load i32, ptr %27, align 4, !tbaa !41
  %38 = call i32 @ff_filter_get_nb_threads(ptr noundef nonnull %6) #8
  %. = call i32 @llvm.smin.i32(i32 %37, i32 %38)
  %39 = call i32 @ff_filter_execute(ptr noundef nonnull %6, ptr noundef nonnull @multiply_slice, ptr noundef nonnull %4, ptr noundef null, i32 noundef %.) #7
  call void @llvm.lifetime.end.p0(i64 24, ptr nonnull %4) #7
  br label %40

40:                                               ; preds = %30, %21
  %.027 = phi ptr [ %23, %21 ], [ %29, %30 ]
  %41 = getelementptr inbounds nuw i8, ptr %8, i64 72
  %42 = load i64, ptr %41, align 8, !tbaa !62
  %43 = getelementptr inbounds nuw i8, ptr %8, i64 60
  %44 = getelementptr inbounds nuw i8, ptr %11, i64 96
  %45 = load i64, ptr %43, align 4
  %46 = load i64, ptr %44, align 8
  %47 = call i64 @av_rescale_q(i64 noundef %42, i64 %45, i64 %46) #9
  %48 = getelementptr inbounds nuw i8, ptr %.027, i64 136
  store i64 %47, ptr %48, align 8, !tbaa !63
  %49 = call i32 @ff_filter_frame(ptr noundef %11, ptr noundef nonnull %.027) #7
  br label %50

.critedge:                                        ; preds = %24
  call void @llvm.lifetime.end.p0(i64 24, ptr nonnull %4) #7
  br label %50

50:                                               ; preds = %.critedge, %21, %1, %15, %40
  %.028 = phi i32 [ %49, %40 ], [ %13, %1 ], [ %16, %15 ], [ -12, %21 ], [ -12, %.critedge ]
  call void @llvm.lifetime.end.p0(i64 8, ptr nonnull %3) #7
  call void @llvm.lifetime.end.p0(i64 8, ptr nonnull %2) #7
  ret i32 %.028
}